; Function Attrs: mustprogress uwtable
define noundef double @_ZNK8QuantLib27AnalyticDoubleBarrierEngine5putKIEv(ptr noundef nonnull align 8 dereferenceable(452) %this) local_unnamed_addr #8 align 2 {
entry:
  %call = tail call noundef double @_ZNK8QuantLib27AnalyticDoubleBarrierEngine17vanillaEquivalentEv(ptr noundef nonnull align 8 dereferenceable(452) %this)
  %call3 = tail call noundef double @_ZNK8QuantLib27AnalyticDoubleBarrierEngine5putKOEv(ptr noundef nonnull align 8 dereferenceable(452) %this)
  %sub = fsub double %call, %call3
  %cmp.i = fcmp ogt double %sub, 0.000000e+00
  %.sroa.speculated = select i1 %cmp.i, double %sub, double 0.000000e+00
  ret double %.sroa.speculated
}